target datalayout = "e-m:e-p270:32:32-p271:32:32-p272:64:64-i64:64-i128:128-f80:128-n8:16:32:64-S128"
target triple = "x86_64-unknown-linux-gnu"

%"class.zmq::stream_listener_base_t" = type { %"class.zmq::own_t.base", %"class.zmq::io_object_t", i32, ptr, ptr, %"class.std::__cxx11::basic_string" }
%"class.zmq::own_t.base" = type <{ %"class.zmq::object_t.base", [4 x i8], %"struct.zmq::options_t", i8, [7 x i8], %"class.zmq::atomic_counter_t", i64, ptr, %"class.std::set.28", i32 }>
%"class.zmq::object_t.base" = type <{ ptr, ptr, i32 }>
%"struct.zmq::options_t" = type { i32, i32, i64, i8, [256 x i8], i32, i32, i32, i32, i32, i32, i32, i32, i8, %"struct.zmq::atomic_value_t", i32, i32, i32, i32, i32, i32, i64, i32, i32, i8, i32, i8, i8, i8, i8, i8, %"class.std::__cxx11::basic_string", %"class.std::__cxx11::basic_string", %"class.std::__cxx11::basic_string", i32, i32, i32, i32, %"class.std::vector", %"class.std::set", %"class.std::set", %"class.std::set.6", i32, i32, %"class.std::__cxx11::basic_string", %"class.std::__cxx11::basic_string", %"class.std::__cxx11::basic_string", [32 x i8], [32 x i8], [32 x i8], %"class.std::__cxx11::basic_string", %"class.std::__cxx11::basic_string", i32, i32, i8, i32, i8, i32, i8, i16, i32, i32, i32, %"class.std::__cxx11::basic_string", i8, i8, i8, i32, i32, i8, i32, %"class.std::map", i32, %"class.std::__cxx11::basic_string", %"class.std::__cxx11::basic_string", %"class.std::__cxx11::basic_string", %"class.std::__cxx11::basic_string", i8, %"class.std::vector.21", i8, %"class.std::vector.21", i8, %"class.std::vector.21", i8, i32, i8, i32, i32, i32, i32, i32, i8, i32 }
%"struct.zmq::atomic_value_t" = type { %"struct.std::atomic" }
%"struct.std::atomic" = type { %"struct.std::__atomic_base" }
%"struct.std::__atomic_base" = type { i32 }
%"class.std::vector" = type { %"struct.std::_Vector_base" }
%"struct.std::_Vector_base" = type { %"struct.std::_Vector_base<zmq::tcp_address_mask_t, std::allocator<zmq::tcp_address_mask_t>>::_Vector_impl" }
%"struct.std::_Vector_base<zmq::tcp_address_mask_t, std::allocator<zmq::tcp_address_mask_t>>::_Vector_impl" = type { %"struct.std::_Vector_base<zmq::tcp_address_mask_t, std::allocator<zmq::tcp_address_mask_t>>::_Vector_impl_data" }
%"struct.std::_Vector_base<zmq::tcp_address_mask_t, std::allocator<zmq::tcp_address_mask_t>>::_Vector_impl_data" = type { ptr, ptr, ptr }
%"class.std::set" = type { %"class.std::_Rb_tree" }
%"class.std::_Rb_tree" = type { %"struct.std::_Rb_tree<unsigned int, unsigned int, std::_Identity<unsigned int>, std::less<unsigned int>>::_Rb_tree_impl" }
%"struct.std::_Rb_tree<unsigned int, unsigned int, std::_Identity<unsigned int>, std::less<unsigned int>>::_Rb_tree_impl" = type { %"struct.std::_Rb_tree_key_compare", %"struct.std::_Rb_tree_header" }
%"struct.std::_Rb_tree_key_compare" = type { %"struct.std::less" }
%"struct.std::less" = type { i8 }
%"struct.std::_Rb_tree_header" = type { %"struct.std::_Rb_tree_node_base", i64 }
%"struct.std::_Rb_tree_node_base" = type { i32, ptr, ptr, ptr }
%"class.std::set.6" = type { %"class.std::_Rb_tree.7" }
%"class.std::_Rb_tree.7" = type { %"struct.std::_Rb_tree<int, int, std::_Identity<int>, std::less<int>>::_Rb_tree_impl" }
%"struct.std::_Rb_tree<int, int, std::_Identity<int>, std::less<int>>::_Rb_tree_impl" = type { %"struct.std::_Rb_tree_key_compare.11", %"struct.std::_Rb_tree_header" }
%"struct.std::_Rb_tree_key_compare.11" = type { %"struct.std::less.12" }
%"struct.std::less.12" = type { i8 }
%"class.std::map" = type { %"class.std::_Rb_tree.14" }
%"class.std::_Rb_tree.14" = type { %"struct.std::_Rb_tree<std::__cxx11::basic_string<char>, std::pair<const std::__cxx11::basic_string<char>, std::__cxx11::basic_string<char>>, std::_Select1st<std::pair<const std::__cxx11::basic_string<char>, std::__cxx11::basic_string<char>>>, std::less<std::__cxx11::basic_string<char>>>::_Rb_tree_impl" }
%"struct.std::_Rb_tree<std::__cxx11::basic_string<char>, std::pair<const std::__cxx11::basic_string<char>, std::__cxx11::basic_string<char>>, std::_Select1st<std::pair<const std::__cxx11::basic_string<char>, std::__cxx11::basic_string<char>>>, std::less<std::__cxx11::basic_string<char>>>::_Rb_tree_impl" = type { %"struct.std::_Rb_tree_key_compare.18", %"struct.std::_Rb_tree_header" }
%"struct.std::_Rb_tree_key_compare.18" = type { %"struct.std::less.19" }
%"struct.std::less.19" = type { i8 }
%"class.std::vector.21" = type { %"struct.std::_Vector_base.22" }
%"struct.std::_Vector_base.22" = type { %"struct.std::_Vector_base<unsigned char, std::allocator<unsigned char>>::_Vector_impl" }
%"struct.std::_Vector_base<unsigned char, std::allocator<unsigned char>>::_Vector_impl" = type { %"struct.std::_Vector_base<unsigned char, std::allocator<unsigned char>>::_Vector_impl_data" }
%"struct.std::_Vector_base<unsigned char, std::allocator<unsigned char>>::_Vector_impl_data" = type { ptr, ptr, ptr }
%"class.zmq::atomic_counter_t" = type { %"struct.std::atomic.26", [4 x i8] }
%"struct.std::atomic.26" = type { %"struct.std::__atomic_base.27" }
%"struct.std::__atomic_base.27" = type { i32 }
%"class.std::set.28" = type { %"class.std::_Rb_tree.29" }
%"class.std::_Rb_tree.29" = type { %"struct.std::_Rb_tree<zmq::own_t *, zmq::own_t *, std::_Identity<zmq::own_t *>, std::less<zmq::own_t *>>::_Rb_tree_impl" }
%"struct.std::_Rb_tree<zmq::own_t *, zmq::own_t *, std::_Identity<zmq::own_t *>, std::less<zmq::own_t *>>::_Rb_tree_impl" = type { %"struct.std::_Rb_tree_key_compare.33", %"struct.std::_Rb_tree_header" }
%"struct.std::_Rb_tree_key_compare.33" = type { %"struct.std::less.34" }
%"struct.std::less.34" = type { i8 }
%"class.zmq::io_object_t" = type { %"struct.zmq::i_poll_events", ptr }
%"struct.zmq::i_poll_events" = type { ptr }
%"class.std::__cxx11::basic_string" = type { %"struct.std::__cxx11::basic_string<char>::_Alloc_hider", i64, %union.anon }
%"struct.std::__cxx11::basic_string<char>::_Alloc_hider" = type { ptr }
%union.anon = type { i64, [8 x i8] }
%struct.sockaddr_storage = type { i16, [118 x i8], i64 }

@stderr = external global ptr, align 8
@.str = private unnamed_addr constant [30 x i8] c"Assertion failed: %s (%s:%d)\0A\00", align 1
@.str.1 = private unnamed_addr constant [17 x i8] c"_s != retired_fd\00", align 1
@.str.2 = private unnamed_addr constant [113 x i8] c"generated/home/dtcxzyw/WorkSpace/Projects/compilers/llvm-opt-benchmark/bench/libzmq/libzmq/src/tipc_listener.cpp\00", align 1
@.str.3 = private unnamed_addr constant [12 x i8] c"%s (%s:%d)\0A\00", align 1

; Function Attrs: mustprogress uwtable
define noundef i32 @_ZN3zmq15tipc_listener_t6acceptEv(ptr noundef nonnull align 8 dereferenceable(1544) %this) #0 align 2 {
entry:
  %retval = alloca i32, align 4
  %this.addr = alloca ptr, align 8
  %ss = alloca %struct.sockaddr_storage, align 8
  %ss_len = alloca i32, align 4
  %sock = alloca i32, align 4
  %errstr = alloca ptr, align 8
  store ptr %this, ptr %this.addr, align 8
  %this1 = load ptr, ptr %this.addr, align 8
  call void @llvm.memset.p0.i64(ptr align 8 %ss, i8 0, i64 128, i1 false)
  store i32 128, ptr %ss_len, align 4
  br label %do.body

do.body:                                          ; preds = %entry
  %_s = getelementptr inbounds %"class.zmq::stream_listener_base_t", ptr %this1, i32 0, i32 2
  %0 = load i32, ptr %_s, align 8
  %cmp = icmp ne i32 %0, -1
  %lnot = xor i1 %cmp, true
  br i1 %lnot, label %if.then, label %if.end

if.then:                                          ; preds = %do.body
  %1 = load ptr, ptr @stderr, align 8
  %call = call i32 (ptr, ptr, ...) @fprintf(ptr noundef %1, ptr noundef @.str, ptr noundef @.str.1, ptr noundef @.str.2, i32 noundef 130)
  %2 = load ptr, ptr @stderr, align 8
  %call2 = call i32 @fflush(ptr noundef %2)
  call void @_ZN3zmq9zmq_abortEPKc(ptr noundef @.str.1)
  br label %if.end

if.end:                                           ; preds = %if.then, %do.body
  br label %do.end

do.end:                                           ; preds = %if.end
  %_s3 = getelementptr inbounds %"class.zmq::stream_listener_base_t", ptr %this1, i32 0, i32 2
  %3 = load i32, ptr %_s3, align 8
  %call4 = call i32 @accept(i32 noundef %3, ptr noundef %ss, ptr noundef %ss_len)
  store i32 %call4, ptr %sock, align 4
  %4 = load i32, ptr %sock, align 4
  %cmp5 = icmp eq i32 %4, -1
  br i1 %cmp5, label %if.then6, label %if.end37

if.then6:                                         ; preds = %do.end
  br label %do.body7

do.body7:                                         ; preds = %if.then6
  %call8 = call ptr @__errno_location() #11
  %5 = load i32, ptr %call8, align 4
  %cmp9 = icmp eq i32 %5, 11
  br i1 %cmp9, label %lor.end, label %lor.lhs.false

lor.lhs.false:                                    ; preds = %do.body7
  %call10 = call ptr @__errno_location() #11
  %6 = load i32, ptr %call10, align 4
  %cmp11 = icmp eq i32 %6, 11
  br i1 %cmp11, label %lor.end, label %lor.lhs.false12

lor.lhs.false12:                                  ; preds = %lor.lhs.false
  %call13 = call ptr @__errno_location() #11
  %7 = load i32, ptr %call13, align 4
  %cmp14 = icmp eq i32 %7, 105
  br i1 %cmp14, label %lor.end, label %lor.lhs.false15

lor.lhs.false15:                                  ; preds = %lor.lhs.false12
  %call16 = call ptr @__errno_location() #11
  %8 = load i32, ptr %call16, align 4
  %cmp17 = icmp eq i32 %8, 4
  br i1 %cmp17, label %lor.end, label %lor.lhs.false18

lor.lhs.false18:                                  ; preds = %lor.lhs.false15
  %call19 = call ptr @__errno_location() #11
  %9 = load i32, ptr %call19, align 4
  %cmp20 = icmp eq i32 %9, 103
  br i1 %cmp20, label %lor.end, label %lor.lhs.false21

lor.lhs.false21:                                  ; preds = %lor.lhs.false18
  %call22 = call ptr @__errno_location() #11
  %10 = load i32, ptr %call22, align 4
  %cmp23 = icmp eq i32 %10, 71
  br i1 %cmp23, label %lor.end, label %lor.lhs.false24

lor.lhs.false24:                                  ; preds = %lor.lhs.false21
  %call25 = call ptr @__errno_location() #11
  %11 = load i32, ptr %call25, align 4
  %cmp26 = icmp eq i32 %11, 24
  br i1 %cmp26, label %lor.end, label %lor.rhs

lor.rhs:                                          ; preds = %lor.lhs.false24
  %call27 = call ptr @__errno_location() #11
  %12 = load i32, ptr %call27, align 4
  %cmp28 = icmp eq i32 %12, 23
  br label %lor.end

lor.end:                                          ; preds = %lor.rhs, %lor.lhs.false24, %lor.lhs.false21, %lor.lhs.false18, %lor.lhs.false15, %lor.lhs.false12, %lor.lhs.false, %do.body7
  %13 = phi i1 [ true, %lor.lhs.false24 ], [ true, %lor.lhs.false21 ], [ true, %lor.lhs.false18 ], [ true, %lor.lhs.false15 ], [ true, %lor.lhs.false12 ], [ true, %lor.lhs.false ], [ true, %do.body7 ], [ %cmp28, %lor.rhs ]
  %lnot29 = xor i1 %13, true
  br i1 %lnot29, label %if.then30, label %if.end35

if.then30:                                        ; preds = %lor.end
  %call31 = call ptr @__errno_location() #11
  %14 = load i32, ptr %call31, align 4
  %call32 = call ptr @strerror(i32 noundef %14) #10
  store ptr %call32, ptr %errstr, align 8
  %15 = load ptr, ptr @stderr, align 8
  %16 = load ptr, ptr %errstr, align 8
  %call33 = call i32 (ptr, ptr, ...) @fprintf(ptr noundef %15, ptr noundef @.str.3, ptr noundef %16, ptr noundef @.str.2, i32 noundef 141)
  %17 = load ptr, ptr @stderr, align 8
  %call34 = call i32 @fflush(ptr noundef %17)
  %18 = load ptr, ptr %errstr, align 8
  call void @_ZN3zmq9zmq_abortEPKc(ptr noundef %18)
  br label %if.end35

if.end35:                                         ; preds = %if.then30, %lor.end
  br label %do.end36

do.end36:                                         ; preds = %if.end35
  store i32 -1, ptr %retval, align 4
  br label %return

if.end37:                                         ; preds = %do.end
  %19 = load i32, ptr %sock, align 4
  store i32 %19, ptr %retval, align 4
  br label %return

return:                                           ; preds = %if.end37, %do.end36
  %20 = load i32, ptr %retval, align 4
  ret i32 %20
}