; Function Attrs: mustprogress uwtable
define noundef i32 @_ZN3zmq15tipc_listener_t6acceptEv(ptr nocapture noundef nonnull readonly align 8 dereferenceable(1544) %this) local_unnamed_addr #0 align 2 {
entry:
  %ss = alloca %struct.sockaddr_storage, align 8
  %ss_len = alloca i32, align 4
  call void @llvm.memset.p0.i64(ptr noundef nonnull align 8 dereferenceable(128) %ss, i8 0, i64 128, i1 false)
  store i32 128, ptr %ss_len, align 4
  %_s = getelementptr inbounds i8, ptr %this, i64 1464
  %0 = load i32, ptr %_s, align 8
  %cmp.not = icmp eq i32 %0, -1
  br i1 %cmp.not, label %if.then, label %do.end

if.then:                                          ; preds = %entry
  %1 = load ptr, ptr @stderr, align 8
  %call = tail call i32 (ptr, ptr, ...) @fprintf(ptr noundef %1, ptr noundef nonnull @.str, ptr noundef nonnull @.str.1, ptr noundef nonnull @.str.2, i32 noundef 130) #13
  %2 = load ptr, ptr @stderr, align 8
  %call2 = tail call i32 @fflush(ptr noundef %2)
  tail call void @_ZN3zmq9zmq_abortEPKc(ptr noundef nonnull @.str.1)
  %.pre = load i32, ptr %_s, align 8
  br label %do.end

do.end:                                           ; preds = %entry, %if.then
  %3 = phi i32 [ %0, %entry ], [ %.pre, %if.then ]
  %call4 = call i32 @accept(i32 noundef %3, ptr noundef nonnull %ss, ptr noundef nonnull %ss_len)
  %cmp5 = icmp eq i32 %call4, -1
  br i1 %cmp5, label %do.body7, label %return

do.body7:                                         ; preds = %do.end
  %call8 = tail call ptr @__errno_location() #14
  %4 = load i32, ptr %call8, align 4
  switch i32 %4, label %lor.rhs [
    i32 11, label %return
    i32 105, label %return
    i32 4, label %return
    i32 103, label %return
    i32 71, label %return
    i32 24, label %return
    i32 23, label %return
  ]

lor.rhs:                                          ; preds = %do.body7
  %call32 = call ptr @strerror(i32 noundef %4) #12
  %5 = load ptr, ptr @stderr, align 8
  %call33 = call i32 (ptr, ptr, ...) @fprintf(ptr noundef %5, ptr noundef nonnull @.str.3, ptr noundef %call32, ptr noundef nonnull @.str.2, i32 noundef 141) #13
  %6 = load ptr, ptr @stderr, align 8
  %call34 = call i32 @fflush(ptr noundef %6)
  call void @_ZN3zmq9zmq_abortEPKc(ptr noundef %call32)
  br label %return

return:                                           ; preds = %do.body7, %do.end, %lor.rhs, %do.body7, %do.body7, %do.body7, %do.body7, %do.body7, %do.body7
  ret i32 %call4
}